; Function Attrs: mustprogress uwtable
define hidden void @_ZN6Assimp11B3DImporter10ReadStringB5cxx11Ev(ptr noalias sret(%"class.std::__cxx11::basic_string") align 8 %agg.result, ptr nocapture noundef nonnull align 8 dereferenceable(312) %this) local_unnamed_addr #3 align 2 personality ptr @__gxx_personality_v0 {
entry:
  %ref.tmp = alloca %"class.std::__cxx11::basic_string", align 8
  %ref.tmp2 = alloca %"class.std::allocator.0", align 1
  %str = alloca %"class.std::__cxx11::basic_string", align 8
  %_pos = getelementptr inbounds i8, ptr %this, i64 72
  %0 = load i64, ptr %_pos, align 8
  %_buf = getelementptr inbounds i8, ptr %this, i64 80
  %_M_finish.i = getelementptr inbounds i8, ptr %this, i64 88
  %1 = load ptr, ptr %_M_finish.i, align 8
  %2 = load ptr, ptr %_buf, align 8
  %sub.ptr.lhs.cast.i = ptrtoint ptr %1 to i64
  %sub.ptr.rhs.cast.i = ptrtoint ptr %2 to i64
  %sub.ptr.sub.i = sub i64 %sub.ptr.lhs.cast.i, %sub.ptr.rhs.cast.i
  %cmp = icmp ugt i64 %0, %sub.ptr.sub.i
  br i1 %cmp, label %if.then, label %if.end

if.then:                                          ; preds = %entry
  call void @_ZNSaIcEC1Ev(ptr noundef nonnull align 1 dereferenceable(1) %ref.tmp2) #22
  invoke void @_ZNSt7__cxx1112basic_stringIcSt11char_traitsIcESaIcEEC2IS3_EEPKcRKS3_(ptr noundef nonnull align 8 dereferenceable(32) %ref.tmp, ptr noundef nonnull @.str.6, ptr noundef nonnull align 1 dereferenceable(1) %ref.tmp2)
          to label %invoke.cont unwind label %lpad

invoke.cont:                                      ; preds = %if.then
  invoke void @_ZN6Assimp11B3DImporter4FailERKNSt7__cxx1112basic_stringIcSt11char_traitsIcESaIcEEE(ptr nonnull align 8 poison, ptr noundef nonnull align 8 dereferenceable(32) %ref.tmp) #24
          to label %invoke.cont4 unwind label %lpad3

invoke.cont4:                                     ; preds = %invoke.cont
  unreachable

lpad:                                             ; preds = %if.then
  %3 = landingpad { ptr, i32 }
          cleanup
  br label %ehcleanup

lpad3:                                            ; preds = %invoke.cont
  %4 = landingpad { ptr, i32 }
          cleanup
  call void @_ZNSt7__cxx1112basic_stringIcSt11char_traitsIcESaIcEED1Ev(ptr noundef nonnull align 8 dereferenceable(32) %ref.tmp) #22
  br label %ehcleanup

ehcleanup:                                        ; preds = %lpad3, %lpad
  %.pn = phi { ptr, i32 } [ %4, %lpad3 ], [ %3, %lpad ]
  call void @_ZNSaIcED1Ev(ptr noundef nonnull align 1 dereferenceable(1) %ref.tmp2) #22
  br label %eh.resume

if.end:                                           ; preds = %entry
  call void @_ZNSt7__cxx1112basic_stringIcSt11char_traitsIcESaIcEEC1Ev(ptr noundef nonnull align 8 dereferenceable(32) %str) #22
  br label %while.cond

while.cond:                                       ; preds = %if.end13, %if.end
  %5 = load i64, ptr %_pos, align 8
  %6 = load ptr, ptr %_M_finish.i, align 8
  %7 = load ptr, ptr %_buf, align 8
  %sub.ptr.lhs.cast.i5 = ptrtoint ptr %6 to i64
  %sub.ptr.rhs.cast.i6 = ptrtoint ptr %7 to i64
  %sub.ptr.sub.i7 = sub i64 %sub.ptr.lhs.cast.i5, %sub.ptr.rhs.cast.i6
  %cmp8 = icmp ult i64 %5, %sub.ptr.sub.i7
  br i1 %cmp8, label %invoke.cont10, label %while.end

invoke.cont10:                                    ; preds = %while.cond
  %inc.i = add nuw i64 %5, 1
  store i64 %inc.i, ptr %_pos, align 8
  %add.ptr.i.i = getelementptr inbounds i8, ptr %7, i64 %5
  %8 = load i8, ptr %add.ptr.i.i, align 1
  %tobool.not = icmp eq i8 %8, 0
  br i1 %tobool.not, label %if.then12, label %if.end13

if.then12:                                        ; preds = %invoke.cont10
  call void @_ZNSt7__cxx1112basic_stringIcSt11char_traitsIcESaIcEEC1EOS4_(ptr noundef nonnull align 8 dereferenceable(32) %agg.result, ptr noundef nonnull align 8 dereferenceable(32) %str) #22
  br label %cleanup

lpad9.body:                                       ; preds = %if.end13
  %9 = landingpad { ptr, i32 }
          cleanup
  call void @_ZNSt7__cxx1112basic_stringIcSt11char_traitsIcESaIcEED1Ev(ptr noundef nonnull align 8 dereferenceable(32) %str) #22
  br label %eh.resume

if.end13:                                         ; preds = %invoke.cont10
  %call15 = invoke noundef nonnull align 8 dereferenceable(32) ptr @_ZNSt7__cxx1112basic_stringIcSt11char_traitsIcESaIcEEpLEc(ptr noundef nonnull align 8 dereferenceable(32) %str, i8 noundef signext %8)
          to label %while.cond unwind label %lpad9.body, !llvm.loop !29

while.end:                                        ; preds = %while.cond
  call void @_ZNSt7__cxx1112basic_stringIcSt11char_traitsIcESaIcEEC1Ev(ptr noundef nonnull align 8 dereferenceable(32) %agg.result) #22
  br label %cleanup

cleanup:                                          ; preds = %while.end, %if.then12
  call void @_ZNSt7__cxx1112basic_stringIcSt11char_traitsIcESaIcEED1Ev(ptr noundef nonnull align 8 dereferenceable(32) %str) #22
  ret void

eh.resume:                                        ; preds = %lpad9.body, %ehcleanup
  %.pn.pn = phi { ptr, i32 } [ %.pn, %ehcleanup ], [ %9, %lpad9.body ]
  resume { ptr, i32 } %.pn.pn
}